target datalayout = "e-m:e-p270:32:32-p271:32:32-p272:64:64-i64:64-i128:128-f80:128-n8:16:32:64-S128"
target triple = "x86_64-pc-linux-gnu"

%"class.gmx::(anonymous namespace)::CMainCommandLineModule" = type { %"class.gmx::ICommandLineModule", ptr, ptr, ptr, ptr }
%"class.gmx::ICommandLineModule" = type { ptr }

; Function Attrs: mustprogress nounwind uwtable
define linkonce_odr void @_ZN3gmx18ICommandLineModuleD2Ev(ptr noundef nonnull align 8 dereferenceable(8) %0) unnamed_addr #2 comdat align 2 {
  %2 = alloca ptr, align 8
  store ptr %0, ptr %2, align 8
  ret void
}

; Function Attrs: mustprogress nounwind uwtable
define linkonce_odr void @_ZN3gmx18ICommandLineModuleC2Ev(ptr noundef nonnull align 8 dereferenceable(8) %0) unnamed_addr #2 comdat align 2 {
  %2 = alloca ptr, align 8
  store ptr %0, ptr %2, align 8
  %3 = load ptr, ptr %2, align 8
  store ptr getelementptr inbounds inrange(-16, 56) ({ [9 x ptr] }, ptr @_ZTVN3gmx18ICommandLineModuleE, i32 0, i32 0, i32 2), ptr %3, align 8
  ret void
}

; Function Attrs: mustprogress nounwind uwtable
define internal void @_ZN3gmx12_GLOBAL__N_122CMainCommandLineModuleD2Ev(ptr noundef nonnull align 8 dereferenceable(40) %0) unnamed_addr #2 align 2 {
  %2 = alloca ptr, align 8
  store ptr %0, ptr %2, align 8
  %3 = load ptr, ptr %2, align 8
  call void @_ZN3gmx18ICommandLineModuleD2Ev(ptr noundef nonnull align 8 dereferenceable(8) %3) #13
  ret void
}

; Function Attrs: mustprogress nounwind uwtable
define internal void @_ZN3gmx12_GLOBAL__N_122CMainCommandLineModuleC2EPKcS3_PFiiPPcEPFvPNS_25CommandLineModuleSettingsEE(ptr noundef nonnull align 8 dereferenceable(40) %0, ptr noundef %1, ptr noundef %2, ptr noundef %3, ptr noundef %4) unnamed_addr #2 align 2 {
  %6 = alloca ptr, align 8
  %7 = alloca ptr, align 8
  %8 = alloca ptr, align 8
  %9 = alloca ptr, align 8
  %10 = alloca ptr, align 8
  store ptr %0, ptr %6, align 8
  store ptr %1, ptr %7, align 8
  store ptr %2, ptr %8, align 8
  store ptr %3, ptr %9, align 8
  store ptr %4, ptr %10, align 8
  %11 = load ptr, ptr %6, align 8
  call void @_ZN3gmx18ICommandLineModuleC2Ev(ptr noundef nonnull align 8 dereferenceable(8) %11) #13
  store ptr getelementptr inbounds inrange(-16, 56) ({ [9 x ptr] }, ptr @_ZTVN3gmx12_GLOBAL__N_122CMainCommandLineModuleE, i32 0, i32 0, i32 2), ptr %11, align 8
  %12 = getelementptr inbounds %"class.gmx::(anonymous namespace)::CMainCommandLineModule", ptr %11, i32 0, i32 1
  %13 = load ptr, ptr %7, align 8
  store ptr %13, ptr %12, align 8
  %14 = getelementptr inbounds %"class.gmx::(anonymous namespace)::CMainCommandLineModule", ptr %11, i32 0, i32 2
  %15 = load ptr, ptr %8, align 8
  store ptr %15, ptr %14, align 8
  %16 = getelementptr inbounds %"class.gmx::(anonymous namespace)::CMainCommandLineModule", ptr %11, i32 0, i32 3
  %17 = load ptr, ptr %9, align 8
  store ptr %17, ptr %16, align 8
  %18 = getelementptr inbounds %"class.gmx::(anonymous namespace)::CMainCommandLineModule", ptr %11, i32 0, i32 4
  %19 = load ptr, ptr %10, align 8
  store ptr %19, ptr %18, align 8
  ret void
}

; Function Attrs: mustprogress uwtable
define noundef i32 @_ZN3gmx24CommandLineModuleManager26runAsMainCMainWithSettingsEiPPcPFiiS2_EPFvPNS_25CommandLineModuleSettingsEE(i32 noundef %0, ptr noundef %1, ptr noundef %2, ptr noundef %3) #0 align 2 personality ptr @__gxx_personality_v0 {
  %5 = alloca i32, align 4
  %6 = alloca ptr, align 8
  %7 = alloca ptr, align 8
  %8 = alloca ptr, align 8
  %9 = alloca %"class.gmx::(anonymous namespace)::CMainCommandLineModule", align 8
  %10 = alloca ptr, align 8
  %11 = alloca i32, align 4
  store i32 %0, ptr %5, align 4
  store ptr %1, ptr %6, align 8
  store ptr %2, ptr %7, align 8
  store ptr %3, ptr %8, align 8
  %12 = load ptr, ptr %6, align 8
  %13 = getelementptr inbounds ptr, ptr %12, i64 0
  %14 = load ptr, ptr %13, align 8
  %15 = load ptr, ptr %7, align 8
  %16 = load ptr, ptr %8, align 8
  call void @_ZN3gmx12_GLOBAL__N_122CMainCommandLineModuleC2EPKcS3_PFiiPPcEPFvPNS_25CommandLineModuleSettingsEE(ptr noundef nonnull align 8 dereferenceable(40) %9, ptr noundef %14, ptr noundef null, ptr noundef %15, ptr noundef %16)
  %17 = load i32, ptr %5, align 4
  %18 = load ptr, ptr %6, align 8
  %19 = invoke noundef i32 @_ZN3gmx24CommandLineModuleManager21runAsMainSingleModuleEiPPcPNS_18ICommandLineModuleE(i32 noundef %17, ptr noundef %18, ptr noundef %9)
          to label %20 unwind label %21

20:                                               ; preds = %4
  call void @_ZN3gmx12_GLOBAL__N_122CMainCommandLineModuleD2Ev(ptr noundef nonnull align 8 dereferenceable(40) %9) #13
  ret i32 %19

21:                                               ; preds = %4
  %22 = landingpad { ptr, i32 }
          cleanup
  %23 = extractvalue { ptr, i32 } %22, 0
  store ptr %23, ptr %10, align 8
  %24 = extractvalue { ptr, i32 } %22, 1
  store i32 %24, ptr %11, align 4
  call void @_ZN3gmx12_GLOBAL__N_122CMainCommandLineModuleD2Ev(ptr noundef nonnull align 8 dereferenceable(40) %9) #13
  br label %25

25:                                               ; preds = %21
  %26 = load ptr, ptr %10, align 8
  %27 = load i32, ptr %11, align 4
  %28 = insertvalue { ptr, i32 } poison, ptr %26, 0
  %29 = insertvalue { ptr, i32 } %28, i32 %27, 1
  resume { ptr, i32 } %29
}