; Function Attrs: mustprogress uwtable
define noundef i32 @_ZN3gmx24CommandLineModuleManager26runAsMainCMainWithSettingsEiPPcPFiiS2_EPFvPNS_25CommandLineModuleSettingsEE(i32 noundef %0, ptr noundef %1, ptr noundef %2, ptr noundef %3) local_unnamed_addr #0 align 2 personality ptr @__gxx_personality_v0 {
  %5 = alloca %"class.gmx::(anonymous namespace)::CMainCommandLineModule", align 8
  %6 = load ptr, ptr %1, align 8
  store ptr getelementptr inbounds inrange(-16, 56) ({ [9 x ptr] }, ptr @_ZTVN3gmx12_GLOBAL__N_122CMainCommandLineModuleE, i64 0, i32 0, i64 2), ptr %5, align 8
  %7 = getelementptr inbounds i8, ptr %5, i64 8
  store ptr %6, ptr %7, align 8
  %8 = getelementptr inbounds i8, ptr %5, i64 16
  store ptr null, ptr %8, align 8
  %9 = getelementptr inbounds i8, ptr %5, i64 24
  store ptr %2, ptr %9, align 8
  %10 = getelementptr inbounds i8, ptr %5, i64 32
  store ptr %3, ptr %10, align 8
  %11 = call noundef i32 @_ZN3gmx24CommandLineModuleManager21runAsMainSingleModuleEiPPcPNS_18ICommandLineModuleE(i32 noundef %0, ptr noundef nonnull %1, ptr noundef nonnull %5)
  ret i32 %11
}